; ModuleID = '25/1087.c'
source_filename = "25/1087.c"
target datalayout = "e-m:e-p270:32:32-p271:32:32-p272:64:64-i64:64-f80:128-n8:16:32:64-S128"
target triple = "x86_64-pc-linux-gnu"

@.str = private unnamed_addr constant [3 x i8] c"%d\00", align 1

; Function Attrs: noinline nounwind uwtable
define dso_local i32 @main() #0 {
  %1 = alloca i32, align 4
  %2 = alloca i32, align 4
  %3 = alloca i32, align 4
  %4 = alloca i32, align 4
  %5 = alloca i32, align 4
  %6 = alloca [100 x i32], align 16
  %7 = alloca i32, align 4
  store i32 0, i32* %1, align 4
  store i32 0, i32* %5, align 4
  %8 = getelementptr inbounds [100 x i32], [100 x i32]* %6, i64 0, i64 0
  store i32 1, i32* %8, align 16
  store i32 1, i32* %3, align 4
  br label %9

9:                                                ; preds = %16, %0
  %10 = load i32, i32* %3, align 4
  %11 = icmp slt i32 %10, 100
  br i1 %11, label %12, label %19

12:                                               ; preds = %9
  %13 = load i32, i32* %3, align 4
  %14 = sext i32 %13 to i64
  %15 = getelementptr inbounds [100 x i32], [100 x i32]* %6, i64 0, i64 %14
  store i32 0, i32* %15, align 4
  br label %16

16:                                               ; preds = %12
  %17 = load i32, i32* %3, align 4
  %18 = add nsw i32 %17, 1
  store i32 %18, i32* %3, align 4
  br label %9

19:                                               ; preds = %9
  %20 = call i32 (i8*, ...) @__isoc99_scanf(i8* getelementptr inbounds ([3 x i8], [3 x i8]* @.str, i64 0, i64 0), i32* %2)
  store i32 1, i32* %3, align 4
  br label %21

21:                                               ; preds = %68, %19
  %22 = load i32, i32* %3, align 4
  %23 = load i32, i32* %2, align 4
  %24 = icmp sle i32 %22, %23
  br i1 %24, label %25, label %71

25:                                               ; preds = %21
  store i32 0, i32* %4, align 4
  br label %26

26:                                               ; preds = %37, %25
  %27 = load i32, i32* %4, align 4
  %28 = load i32, i32* %5, align 4
  %29 = add nsw i32 %28, 1
  %30 = icmp sle i32 %27, %29
  br i1 %30, label %31, label %40

31:                                               ; preds = %26
  %32 = load i32, i32* %4, align 4
  %33 = sext i32 %32 to i64
  %34 = getelementptr inbounds [100 x i32], [100 x i32]* %6, i64 0, i64 %33
  %35 = load i32, i32* %34, align 4
  %36 = mul nsw i32 %35, 2
  store i32 %36, i32* %34, align 4
  br label %37

37:                                               ; preds = %31
  %38 = load i32, i32* %4, align 4
  %39 = add nsw i32 %38, 1
  store i32 %39, i32* %4, align 4
  br label %26

40:                                               ; preds = %26
  store i32 0, i32* %5, align 4
  br label %41

41:                                               ; preds = %64, %40
  %42 = load i32, i32* %5, align 4
  %43 = load i32, i32* %4, align 4
  %44 = icmp slt i32 %42, %43
  br i1 %44, label %45, label %67

45:                                               ; preds = %41
  %46 = load i32, i32* %5, align 4
  %47 = sext i32 %46 to i64
  %48 = getelementptr inbounds [100 x i32], [100 x i32]* %6, i64 0, i64 %47
  %49 = load i32, i32* %48, align 4
  %50 = icmp sge i32 %49, 10
  br i1 %50, label %51, label %63

51:                                               ; preds = %45
  %52 = load i32, i32* %5, align 4
  %53 = sext i32 %52 to i64
  %54 = getelementptr inbounds [100 x i32], [100 x i32]* %6, i64 0, i64 %53
  %55 = load i32, i32* %54, align 4
  %56 = sub nsw i32 %55, 10
  store i32 %56, i32* %54, align 4
  %57 = load i32, i32* %5, align 4
  %58 = add nsw i32 %57, 1
  %59 = sext i32 %58 to i64
  %60 = getelementptr inbounds [100 x i32], [100 x i32]* %6, i64 0, i64 %59
  %61 = load i32, i32* %60, align 4
  %62 = add nsw i32 %61, 1
  store i32 %62, i32* %60, align 4
  br label %63

63:                                               ; preds = %51, %45
  br label %64

64:                                               ; preds = %63
  %65 = load i32, i32* %5, align 4
  %66 = add nsw i32 %65, 1
  store i32 %66, i32* %5, align 4
  br label %41

67:                                               ; preds = %41
  br label %68

68:                                               ; preds = %67
  %69 = load i32, i32* %3, align 4
  %70 = add nsw i32 %69, 1
  store i32 %70, i32* %3, align 4
  br label %21

71:                                               ; preds = %21
  store i32 0, i32* %3, align 4
  br label %72

72:                                               ; preds = %97, %71
  %73 = load i32, i32* %3, align 4
  %74 = icmp sge i32 %73, 0
  br i1 %74, label %75, label %100

75:                                               ; preds = %72
  %76 = load i32, i32* %3, align 4
  %77 = sext i32 %76 to i64
  %78 = getelementptr inbounds [100 x i32], [100 x i32]* %6, i64 0, i64 %77
  %79 = load i32, i32* %78, align 4
  %80 = icmp eq i32 %79, 0
  br i1 %80, label %81, label %97

81:                                               ; preds = %75
  %82 = load i32, i32* %3, align 4
  %83 = add nsw i32 %82, 1
  %84 = sext i32 %83 to i64
  %85 = getelementptr inbounds [100 x i32], [100 x i32]* %6, i64 0, i64 %84
  %86 = load i32, i32* %85, align 4
  %87 = icmp eq i32 %86, 0
  br i1 %87, label %88, label %97

88:                                               ; preds = %81
  %89 = load i32, i32* %3, align 4
  %90 = add nsw i32 %89, 2
  %91 = sext i32 %90 to i64
  %92 = getelementptr inbounds [100 x i32], [100 x i32]* %6, i64 0, i64 %91
  %93 = load i32, i32* %92, align 4
  %94 = icmp eq i32 %93, 0
  br i1 %94, label %95, label %97

95:                                               ; preds = %88
  %96 = load i32, i32* %3, align 4
  store i32 %96, i32* %7, align 4
  br label %100

97:                                               ; preds = %88, %81, %75
  %98 = load i32, i32* %3, align 4
  %99 = add nsw i32 %98, 1
  store i32 %99, i32* %3, align 4
  br label %72

100:                                              ; preds = %95, %72
  %101 = load i32, i32* %7, align 4
  %102 = sub nsw i32 %101, 1
  store i32 %102, i32* %3, align 4
  br label %103

103:                                              ; preds = %112, %100
  %104 = load i32, i32* %3, align 4
  %105 = icmp sge i32 %104, 0
  br i1 %105, label %106, label %115

106:                                              ; preds = %103
  %107 = load i32, i32* %3, align 4
  %108 = sext i32 %107 to i64
  %109 = getelementptr inbounds [100 x i32], [100 x i32]* %6, i64 0, i64 %108
  %110 = load i32, i32* %109, align 4
  %111 = call i32 (i8*, ...) @printf(i8* getelementptr inbounds ([3 x i8], [3 x i8]* @.str, i64 0, i64 0), i32 %110)
  br label %112

112:                                              ; preds = %106
  %113 = load i32, i32* %3, align 4
  %114 = add nsw i32 %113, -1
  store i32 %114, i32* %3, align 4
  br label %103

115:                                              ; preds = %103
  ret i32 0
}

declare dso_local i32 @__isoc99_scanf(i8*, ...) #1

declare dso_local i32 @printf(i8*, ...) #1


!llvm.module.flags = !{!0}
!llvm.ident = !{!1}

!0 = !{i32 1, !"wchar_size", i32 4}
!1 = !{!"clang version 10.0.0-4ubuntu1 "}
