; ModuleID = 'source-C-CXX/24/1087.c'
source_filename = "source-C-CXX/24/1087.c"
target datalayout = "e-m:e-p270:32:32-p271:32:32-p272:64:64-i64:64-f80:128-n8:16:32:64-S128"
target triple = "x86_64-pc-linux-gnu"

@.str = private unnamed_addr constant [3 x i8] c"%d\00", align 1

; Function Attrs: nofree nounwind sspstrong uwtable
define dso_local i32 @main() local_unnamed_addr #0 {
  %1 = alloca i32, align 4
  %2 = alloca [100 x i32], align 16
  %3 = bitcast i32* %1 to i8*
  call void @llvm.lifetime.start.p0i8(i64 4, i8* nonnull %3) #4
  %4 = bitcast [100 x i32]* %2 to i8*
  call void @llvm.lifetime.start.p0i8(i64 400, i8* nonnull %4) #4
  %5 = getelementptr inbounds [100 x i32], [100 x i32]* %2, i64 0, i64 0
  store i32 1, i32* %5, align 16, !tbaa !5
  %6 = getelementptr inbounds [100 x i32], [100 x i32]* %2, i64 0, i64 1
  %7 = bitcast i32* %6 to i8*
  call void @llvm.memset.p0i8.i64(i8* noundef nonnull align 4 dereferenceable(396) %7, i8 0, i64 396, i1 false)
  %8 = call i32 (i8*, ...) @__isoc99_scanf(i8* getelementptr inbounds ([3 x i8], [3 x i8]* @.str, i64 0, i64 0), i32* nonnull %1)
  %9 = load i32, i32* %1, align 4, !tbaa !5
  %10 = icmp slt i32 %9, 1
  br i1 %10, label %103, label %11

11:                                               ; preds = %0, %100
  %12 = phi i32 [ %75, %100 ], [ 0, %0 ]
  %13 = phi i32 [ %101, %100 ], [ 1, %0 ]
  %14 = add nuw i32 %12, 2
  %15 = zext i32 %14 to i64
  %16 = icmp ult i32 %12, 6
  br i1 %16, label %70, label %17

17:                                               ; preds = %11
  %18 = and i64 %15, 4294967288
  %19 = add nsw i64 %18, -8
  %20 = lshr exact i64 %19, 3
  %21 = add nuw nsw i64 %20, 1
  %22 = and i64 %21, 1
  %23 = icmp eq i64 %19, 0
  br i1 %23, label %53, label %24

24:                                               ; preds = %17
  %25 = and i64 %21, 4611686018427387902
  br label %26

26:                                               ; preds = %26, %24
  %27 = phi i64 [ 0, %24 ], [ %50, %26 ]
  %28 = phi i64 [ %25, %24 ], [ %51, %26 ]
  %29 = getelementptr inbounds [100 x i32], [100 x i32]* %2, i64 0, i64 %27
  %30 = bitcast i32* %29 to <4 x i32>*
  %31 = load <4 x i32>, <4 x i32>* %30, align 16, !tbaa !5
  %32 = getelementptr inbounds i32, i32* %29, i64 4
  %33 = bitcast i32* %32 to <4 x i32>*
  %34 = load <4 x i32>, <4 x i32>* %33, align 16, !tbaa !5
  %35 = shl nsw <4 x i32> %31, <i32 1, i32 1, i32 1, i32 1>
  %36 = shl nsw <4 x i32> %34, <i32 1, i32 1, i32 1, i32 1>
  %37 = bitcast i32* %29 to <4 x i32>*
  store <4 x i32> %35, <4 x i32>* %37, align 16, !tbaa !5
  %38 = bitcast i32* %32 to <4 x i32>*
  store <4 x i32> %36, <4 x i32>* %38, align 16, !tbaa !5
  %39 = or i64 %27, 8
  %40 = getelementptr inbounds [100 x i32], [100 x i32]* %2, i64 0, i64 %39
  %41 = bitcast i32* %40 to <4 x i32>*
  %42 = load <4 x i32>, <4 x i32>* %41, align 16, !tbaa !5
  %43 = getelementptr inbounds i32, i32* %40, i64 4
  %44 = bitcast i32* %43 to <4 x i32>*
  %45 = load <4 x i32>, <4 x i32>* %44, align 16, !tbaa !5
  %46 = shl nsw <4 x i32> %42, <i32 1, i32 1, i32 1, i32 1>
  %47 = shl nsw <4 x i32> %45, <i32 1, i32 1, i32 1, i32 1>
  %48 = bitcast i32* %40 to <4 x i32>*
  store <4 x i32> %46, <4 x i32>* %48, align 16, !tbaa !5
  %49 = bitcast i32* %43 to <4 x i32>*
  store <4 x i32> %47, <4 x i32>* %49, align 16, !tbaa !5
  %50 = add nuw i64 %27, 16
  %51 = add i64 %28, -2
  %52 = icmp eq i64 %51, 0
  br i1 %52, label %53, label %26, !llvm.loop !9

53:                                               ; preds = %26, %17
  %54 = phi i64 [ 0, %17 ], [ %50, %26 ]
  %55 = icmp eq i64 %22, 0
  br i1 %55, label %67, label %56

56:                                               ; preds = %53
  %57 = getelementptr inbounds [100 x i32], [100 x i32]* %2, i64 0, i64 %54
  %58 = bitcast i32* %57 to <4 x i32>*
  %59 = load <4 x i32>, <4 x i32>* %58, align 16, !tbaa !5
  %60 = getelementptr inbounds i32, i32* %57, i64 4
  %61 = bitcast i32* %60 to <4 x i32>*
  %62 = load <4 x i32>, <4 x i32>* %61, align 16, !tbaa !5
  %63 = shl nsw <4 x i32> %59, <i32 1, i32 1, i32 1, i32 1>
  %64 = shl nsw <4 x i32> %62, <i32 1, i32 1, i32 1, i32 1>
  %65 = bitcast i32* %57 to <4 x i32>*
  store <4 x i32> %63, <4 x i32>* %65, align 16, !tbaa !5
  %66 = bitcast i32* %60 to <4 x i32>*
  store <4 x i32> %64, <4 x i32>* %66, align 16, !tbaa !5
  br label %67

67:                                               ; preds = %53, %56
  %68 = icmp eq i64 %18, %15
  %69 = add nsw i64 %18, -1
  br i1 %68, label %72, label %70

70:                                               ; preds = %11, %67
  %71 = phi i64 [ 0, %11 ], [ %18, %67 ]
  br label %77

72:                                               ; preds = %77, %67
  %73 = phi i64 [ %69, %67 ], [ %78, %77 ]
  %74 = trunc i64 %73 to i32
  %75 = add nuw i32 %74, 1
  %76 = zext i32 %75 to i64
  br label %84

77:                                               ; preds = %70, %77
  %78 = phi i64 [ %82, %77 ], [ %71, %70 ]
  %79 = getelementptr inbounds [100 x i32], [100 x i32]* %2, i64 0, i64 %78
  %80 = load i32, i32* %79, align 4, !tbaa !5
  %81 = shl nsw i32 %80, 1
  store i32 %81, i32* %79, align 4, !tbaa !5
  %82 = add nuw nsw i64 %78, 1
  %83 = icmp eq i64 %82, %15
  br i1 %83, label %72, label %77, !llvm.loop !12

84:                                               ; preds = %72, %97
  %85 = phi i64 [ 0, %72 ], [ %98, %97 ]
  %86 = getelementptr inbounds [100 x i32], [100 x i32]* %2, i64 0, i64 %85
  %87 = load i32, i32* %86, align 4, !tbaa !5
  %88 = icmp sgt i32 %87, 9
  br i1 %88, label %91, label %89

89:                                               ; preds = %84
  %90 = add nuw nsw i64 %85, 1
  br label %97

91:                                               ; preds = %84
  %92 = add nsw i32 %87, -10
  store i32 %92, i32* %86, align 4, !tbaa !5
  %93 = add nuw nsw i64 %85, 1
  %94 = getelementptr inbounds [100 x i32], [100 x i32]* %2, i64 0, i64 %93
  %95 = load i32, i32* %94, align 4, !tbaa !5
  %96 = add nsw i32 %95, 1
  store i32 %96, i32* %94, align 4, !tbaa !5
  br label %97

97:                                               ; preds = %89, %91
  %98 = phi i64 [ %90, %89 ], [ %93, %91 ]
  %99 = icmp eq i64 %98, %76
  br i1 %99, label %100, label %84, !llvm.loop !14

100:                                              ; preds = %97
  %101 = add nuw i32 %13, 1
  %102 = icmp eq i32 %13, %9
  br i1 %102, label %103, label %11, !llvm.loop !15

103:                                              ; preds = %100, %0
  br label %104

104:                                              ; preds = %110, %103
  %105 = phi i64 [ 0, %103 ], [ %109, %110 ]
  %106 = getelementptr inbounds [100 x i32], [100 x i32]* %2, i64 0, i64 %105
  %107 = load i32, i32* %106, align 4, !tbaa !5
  %108 = icmp eq i32 %107, 0
  %109 = add nuw i64 %105, 1
  br i1 %108, label %111, label %110

110:                                              ; preds = %104, %115, %111
  br label %104, !llvm.loop !16

111:                                              ; preds = %104
  %112 = getelementptr inbounds [100 x i32], [100 x i32]* %2, i64 0, i64 %109
  %113 = load i32, i32* %112, align 4, !tbaa !5
  %114 = icmp eq i32 %113, 0
  br i1 %114, label %115, label %110

115:                                              ; preds = %111
  %116 = add nuw nsw i64 %105, 2
  %117 = getelementptr inbounds [100 x i32], [100 x i32]* %2, i64 0, i64 %116
  %118 = load i32, i32* %117, align 4, !tbaa !5
  %119 = icmp eq i32 %118, 0
  br i1 %119, label %120, label %110

120:                                              ; preds = %115
  %121 = trunc i64 %105 to i32
  %122 = icmp eq i32 %121, 0
  br i1 %122, label %136, label %123

123:                                              ; preds = %120
  %124 = and i64 %105, 4294967295
  br label %125

125:                                              ; preds = %123, %125
  %126 = phi i64 [ %124, %123 ], [ %135, %125 ]
  %127 = phi i32 [ %121, %123 ], [ %128, %125 ]
  %128 = add nsw i32 %127, -1
  %129 = zext i32 %128 to i64
  %130 = getelementptr inbounds [100 x i32], [100 x i32]* %2, i64 0, i64 %129
  %131 = load i32, i32* %130, align 4, !tbaa !5
  %132 = call i32 (i8*, ...) @printf(i8* nonnull dereferenceable(1) getelementptr inbounds ([3 x i8], [3 x i8]* @.str, i64 0, i64 0), i32 %131)
  %133 = trunc i64 %126 to i32
  %134 = icmp sgt i32 %133, 1
  %135 = add nsw i64 %126, -1
  br i1 %134, label %125, label %136, !llvm.loop !17

136:                                              ; preds = %125, %120
  call void @llvm.lifetime.end.p0i8(i64 400, i8* nonnull %4) #4
  call void @llvm.lifetime.end.p0i8(i64 4, i8* nonnull %3) #4
  ret i32 0
}

; Function Attrs: argmemonly mustprogress nofree nosync nounwind willreturn
declare void @llvm.lifetime.start.p0i8(i64 immarg, i8* nocapture) #1

; Function Attrs: nofree nounwind
declare noundef i32 @__isoc99_scanf(i8* nocapture noundef readonly, ...) local_unnamed_addr #2

; Function Attrs: nofree nounwind
declare noundef i32 @printf(i8* nocapture noundef readonly, ...) local_unnamed_addr #2

; Function Attrs: argmemonly mustprogress nofree nosync nounwind willreturn
declare void @llvm.lifetime.end.p0i8(i64 immarg, i8* nocapture) #1

; Function Attrs: argmemonly nofree nounwind willreturn writeonly
declare void @llvm.memset.p0i8.i64(i8* nocapture writeonly, i8, i64, i1 immarg) #3


!llvm.module.flags = !{!0, !1, !2, !3}
!llvm.ident = !{!4}

!0 = !{i32 1, !"wchar_size", i32 4}
!1 = !{i32 7, !"PIC Level", i32 2}
!2 = !{i32 7, !"PIE Level", i32 2}
!3 = !{i32 7, !"uwtable", i32 1}
!4 = !{!"clang version 13.0.0"}
!5 = !{!6, !6, i64 0}
!6 = !{!"int", !7, i64 0}
!7 = !{!"omnipotent char", !8, i64 0}
!8 = !{!"Simple C/C++ TBAA"}
!9 = distinct !{!9, !10, !11}
!10 = !{!"llvm.loop.mustprogress"}
!11 = !{!"llvm.loop.isvectorized", i32 1}
!12 = distinct !{!12, !10, !13, !11}
!13 = !{!"llvm.loop.unroll.runtime.disable"}
!14 = distinct !{!14, !10}
!15 = distinct !{!15, !10}
!16 = distinct !{!16, !10}
!17 = distinct !{!17, !10}
